; ModuleID = 'bench/open3d/original/FeatureIO.ll'
source_filename = "bench/open3d/original/FeatureIO.ll"
target datalayout = "e-m:e-p270:32:32-p271:32:32-p272:64:64-i64:64-i128:128-f80:128-n8:16:32:64-S128"
target triple = "x86_64-pc-linux-gnu"

%"class.std::locale::id" = type { i64 }

$_ZN3fmt3v1012format_facetISt6localeE2idE = comdat any

@_ZN3fmt3v1012format_facetISt6localeE2idE = linkonce_odr global %"class.std::locale::id" zeroinitializer, comdat, align 8
@_ZGVN3fmt3v1012format_facetISt6localeE2idE = linkonce_odr local_unnamed_addr global i64 0, comdat($_ZN3fmt3v1012format_facetISt6localeE2idE), align 8
@llvm.global_ctors = appending global [1 x { i32, ptr, ptr }] [{ i32, ptr, ptr } { i32 65535, ptr @__cxx_global_var_init.4, ptr @_ZN3fmt3v1012format_facetISt6localeE2idE }]
@llvm.used = appending global [1 x ptr] [ptr @_ZN3fmt3v1012format_facetISt6localeE2idE], section "llvm.metadata"

; Function Attrs: mustprogress ssp uwtable
define noundef zeroext i1 @_ZN6open3d2io11ReadFeatureERKNSt7__cxx1112basic_stringIcSt11char_traitsIcESaIcEEERNS_9pipelines12registration7FeatureE(ptr noundef nonnull align 8 dereferenceable(32) %0, ptr noundef nonnull align 8 dereferenceable(24) %1) local_unnamed_addr #0 {
  %3 = tail call noundef zeroext i1 @_ZN6open3d2io18ReadFeatureFromBINERKNSt7__cxx1112basic_stringIcSt11char_traitsIcESaIcEEERNS_9pipelines12registration7FeatureE(ptr noundef nonnull align 8 dereferenceable(32) %0, ptr noundef nonnull align 8 dereferenceable(24) %1)
  ret i1 %3
}

declare noundef zeroext i1 @_ZN6open3d2io18ReadFeatureFromBINERKNSt7__cxx1112basic_stringIcSt11char_traitsIcESaIcEEERNS_9pipelines12registration7FeatureE(ptr noundef nonnull align 8 dereferenceable(32), ptr noundef nonnull align 8 dereferenceable(24)) local_unnamed_addr #1

; Function Attrs: mustprogress ssp uwtable
define noundef zeroext i1 @_ZN6open3d2io12WriteFeatureERKNSt7__cxx1112basic_stringIcSt11char_traitsIcESaIcEEERKNS_9pipelines12registration7FeatureE(ptr noundef nonnull align 8 dereferenceable(32) %0, ptr noundef nonnull align 8 dereferenceable(24) %1) local_unnamed_addr #0 {
  %3 = tail call noundef zeroext i1 @_ZN6open3d2io17WriteFeatureToBINERKNSt7__cxx1112basic_stringIcSt11char_traitsIcESaIcEEERKNS_9pipelines12registration7FeatureE(ptr noundef nonnull align 8 dereferenceable(32) %0, ptr noundef nonnull align 8 dereferenceable(24) %1)
  ret i1 %3
}

declare noundef zeroext i1 @_ZN6open3d2io17WriteFeatureToBINERKNSt7__cxx1112basic_stringIcSt11char_traitsIcESaIcEEERKNS_9pipelines12registration7FeatureE(ptr noundef nonnull align 8 dereferenceable(32), ptr noundef nonnull align 8 dereferenceable(24)) local_unnamed_addr #1

; Function Attrs: mustprogress nofree norecurse nosync nounwind ssp willreturn memory(readwrite, argmem: none, inaccessiblemem: none) uwtable
define internal void @__cxx_global_var_init.4() #2 section ".text.startup" comdat($_ZN3fmt3v1012format_facetISt6localeE2idE) {
  %1 = load i8, ptr @_ZGVN3fmt3v1012format_facetISt6localeE2idE, align 8
  %2 = icmp eq i8 %1, 0
  br i1 %2, label %3, label %4

3:                                                ; preds = %0
  store i8 1, ptr @_ZGVN3fmt3v1012format_facetISt6localeE2idE, align 8
  br label %4

4:                                                ; preds = %3, %0
  ret void
}


!llvm.module.flags = !{!0, !1, !2, !3}

!0 = !{i32 1, !"wchar_size", i32 4}
!1 = !{i32 7, !"openmp", i32 51}
!2 = !{i32 8, !"PIC Level", i32 2}
!3 = !{i32 7, !"uwtable", i32 2}
